; ModuleID = 'source-C-CXX/32/2978.c'
source_filename = "source-C-CXX/32/2978.c"
target datalayout = "e-m:e-p270:32:32-p271:32:32-p272:64:64-i64:64-f80:128-n8:16:32:64-S128"
target triple = "x86_64-pc-linux-gnu"

@.str = private unnamed_addr constant [3 x i8] c"%d\00", align 1
@.str.1 = private unnamed_addr constant [3 x i8] c"%s\00", align 1

; Function Attrs: nounwind sspstrong uwtable
define dso_local void @main() local_unnamed_addr #0 {
  %1 = alloca i32, align 4
  %2 = bitcast i32* %1 to i8*
  call void @llvm.lifetime.start.p0i8(i64 4, i8* nonnull %2) #6
  %3 = call i32 (i8*, ...) @__isoc99_scanf(i8* getelementptr inbounds ([3 x i8], [3 x i8]* @.str, i64 0, i64 0), i32* nonnull %1)
  %4 = load i32, i32* %1, align 4, !tbaa !5
  %5 = icmp sgt i32 %4, 0
  br i1 %5, label %6, label %32

6:                                                ; preds = %0, %27
  %7 = phi i32 [ %29, %27 ], [ 0, %0 ]
  %8 = call noalias align 16 dereferenceable_or_null(900) i8* @malloc(i64 900) #6
  %9 = call i32 (i8*, ...) @__isoc99_scanf(i8* getelementptr inbounds ([3 x i8], [3 x i8]* @.str.1, i64 0, i64 0), i8* %8)
  %10 = load i8, i8* %8, align 16, !tbaa !9
  %11 = icmp eq i8 %10, 0
  br i1 %11, label %27, label %12

12:                                               ; preds = %6, %22
  %13 = phi i64 [ %23, %22 ], [ 0, %6 ]
  %14 = phi i8 [ %25, %22 ], [ %10, %6 ]
  %15 = sext i8 %14 to i32
  switch i32 %15, label %22 [
    i32 84, label %19
    i32 65, label %16
    i32 67, label %17
    i32 71, label %18
  ]

16:                                               ; preds = %12
  br label %19

17:                                               ; preds = %12
  br label %19

18:                                               ; preds = %12
  br label %19

19:                                               ; preds = %12, %18, %17, %16
  %20 = phi i32 [ 84, %16 ], [ 71, %17 ], [ 67, %18 ], [ 65, %12 ]
  %21 = call i32 @putchar(i32 %20)
  br label %22

22:                                               ; preds = %19, %12
  %23 = add nuw i64 %13, 1
  %24 = getelementptr inbounds i8, i8* %8, i64 %23
  %25 = load i8, i8* %24, align 1, !tbaa !9
  %26 = icmp eq i8 %25, 0
  br i1 %26, label %27, label %12, !llvm.loop !10

27:                                               ; preds = %22, %6
  %28 = call i32 @putchar(i32 10)
  call void @free(i8* nonnull %8) #6
  %29 = add nuw nsw i32 %7, 1
  %30 = load i32, i32* %1, align 4, !tbaa !5
  %31 = icmp slt i32 %29, %30
  br i1 %31, label %6, label %32, !llvm.loop !12

32:                                               ; preds = %27, %0
  call void @llvm.lifetime.end.p0i8(i64 4, i8* nonnull %2) #6
  ret void
}

; Function Attrs: argmemonly mustprogress nofree nosync nounwind willreturn
declare void @llvm.lifetime.start.p0i8(i64 immarg, i8* nocapture) #1

; Function Attrs: nofree nounwind
declare noundef i32 @__isoc99_scanf(i8* nocapture noundef readonly, ...) local_unnamed_addr #2

; Function Attrs: inaccessiblememonly mustprogress nofree nounwind willreturn
declare noalias noundef align 16 i8* @malloc(i64 noundef) local_unnamed_addr #3

; Function Attrs: inaccessiblemem_or_argmemonly mustprogress nounwind willreturn
declare void @free(i8* nocapture noundef) local_unnamed_addr #4

; Function Attrs: argmemonly mustprogress nofree nosync nounwind willreturn
declare void @llvm.lifetime.end.p0i8(i64 immarg, i8* nocapture) #1

; Function Attrs: nofree nounwind
declare noundef i32 @putchar(i32 noundef) local_unnamed_addr #5


!llvm.module.flags = !{!0, !1, !2, !3}
!llvm.ident = !{!4}

!0 = !{i32 1, !"wchar_size", i32 4}
!1 = !{i32 7, !"PIC Level", i32 2}
!2 = !{i32 7, !"PIE Level", i32 2}
!3 = !{i32 7, !"uwtable", i32 1}
!4 = !{!"clang version 13.0.0"}
!5 = !{!6, !6, i64 0}
!6 = !{!"int", !7, i64 0}
!7 = !{!"omnipotent char", !8, i64 0}
!8 = !{!"Simple C/C++ TBAA"}
!9 = !{!7, !7, i64 0}
!10 = distinct !{!10, !11}
!11 = !{!"llvm.loop.mustprogress"}
!12 = distinct !{!12, !11}
